target datalayout = "e-m:e-p270:32:32-p271:32:32-p272:64:64-i64:64-i128:128-f80:128-n8:16:32:64-S128"
target triple = "x86_64-pc-linux-gnu"

%"struct.std::atomic.20" = type { %"struct.std::__atomic_base.21" }
%"struct.std::__atomic_base.21" = type { i64 }
%"class.std::basic_string_view" = type { i64, ptr }
%"class.grpc_core::chttp2::TransportFlowControl" = type { ptr, i64, i8, %"class.grpc_core::BdpEstimator", i64, i64, i64, i64, i64, i32, i32 }
%"class.grpc_core::BdpEstimator" = type { i64, i64, %struct.gpr_timespec, %"class.grpc_core::Duration", i32, i32, double, %"class.std::basic_string_view" }
%struct.gpr_timespec = type { i64, i32, i32 }
%"class.grpc_core::Duration" = type { i64 }
%"struct.grpc_core::BasicMemoryQuota::PressureInfo" = type { double, double, i64 }
%class.anon.3 = type { i8 }
%"class.grpc_core::GrpcMemoryAllocatorImpl" = type { %"class.grpc_event_engine::experimental::internal::MemoryAllocatorImpl", %"class.std::shared_ptr.17", %"struct.std::atomic.20", %"struct.std::atomic.20", %"struct.std::atomic.20", %"class.grpc_core::PeriodicUpdate", %"class.absl::lts_20240722::Mutex", i8, [3 x %"class.std::unique_ptr.24"] }
%"class.grpc_event_engine::experimental::internal::MemoryAllocatorImpl" = type { ptr, %"class.std::enable_shared_from_this" }
%"class.std::enable_shared_from_this" = type { %"class.std::weak_ptr" }
%"class.std::weak_ptr" = type { %"class.std::__weak_ptr" }
%"class.std::__weak_ptr" = type { ptr, %"class.std::__weak_count" }
%"class.std::__weak_count" = type { ptr }
%"class.std::shared_ptr.17" = type { %"class.std::__shared_ptr.18" }
%"class.std::__shared_ptr.18" = type { ptr, %"class.std::__shared_count" }
%"class.std::__shared_count" = type { ptr }
%"class.grpc_core::PeriodicUpdate" = type { %"struct.std::atomic.22", %"class.grpc_core::Duration", %"class.grpc_core::Timestamp", i64 }
%"struct.std::atomic.22" = type { %"struct.std::__atomic_base.23" }
%"struct.std::__atomic_base.23" = type { i64 }
%"class.grpc_core::Timestamp" = type { i64 }
%"class.absl::lts_20240722::Mutex" = type { %"struct.std::atomic.22" }
%"class.std::unique_ptr.24" = type { %"struct.std::__uniq_ptr_data.25" }
%"struct.std::__uniq_ptr_data.25" = type { %"class.std::__uniq_ptr_impl.26" }
%"class.std::__uniq_ptr_impl.26" = type { %"class.std::tuple.27" }
%"class.std::tuple.27" = type { %"struct.std::_Tuple_impl.28" }
%"struct.std::_Tuple_impl.28" = type { %"struct.std::_Head_base.31" }
%"struct.std::_Head_base.31" = type { ptr }
%"class.grpc_event_engine::experimental::MemoryAllocator" = type { %"class.std::shared_ptr" }
%"class.std::shared_ptr" = type { %"class.std::__shared_ptr" }
%"class.std::__shared_ptr" = type { ptr, %"class.std::__shared_count" }

; Function Attrs: mustprogress nounwind uwtable
define linkonce_odr noundef ptr @_ZNKSt12__shared_ptrIN9grpc_core16BasicMemoryQuotaELN9__gnu_cxx12_Lock_policyE2EE3getEv(ptr noundef nonnull align 8 dereferenceable(16) %0) #8 comdat align 2 {
  %2 = alloca ptr, align 8
  store ptr %0, ptr %2, align 8, !tbaa !192
  %3 = load ptr, ptr %2, align 8
  %4 = getelementptr inbounds nuw %"class.std::__shared_ptr.18", ptr %3, i32 0, i32 0
  %5 = load ptr, ptr %4, align 8, !tbaa !194
  ret ptr %5
}

; Function Attrs: mustprogress nounwind uwtable
define linkonce_odr noundef ptr @_ZNKSt19__shared_ptr_accessIN9grpc_core16BasicMemoryQuotaELN9__gnu_cxx12_Lock_policyE2ELb0ELb0EE6_M_getEv(ptr noundef nonnull align 1 dereferenceable(1) %0) #8 comdat align 2 {
  %2 = alloca ptr, align 8
  store ptr %0, ptr %2, align 8, !tbaa !190
  %3 = load ptr, ptr %2, align 8
  %4 = call noundef ptr @_ZNKSt12__shared_ptrIN9grpc_core16BasicMemoryQuotaELN9__gnu_cxx12_Lock_policyE2EE3getEv(ptr noundef nonnull align 8 dereferenceable(16) %3) #3
  ret ptr %4
}

; Function Attrs: mustprogress nounwind uwtable
define linkonce_odr noundef ptr @_ZNKSt12__shared_ptrIN17grpc_event_engine12experimental8internal19MemoryAllocatorImplELN9__gnu_cxx12_Lock_policyE2EE3getEv(ptr noundef nonnull align 8 dereferenceable(16) %0) #8 comdat align 2 {
  %2 = alloca ptr, align 8
  store ptr %0, ptr %2, align 8, !tbaa !183
  %3 = load ptr, ptr %2, align 8
  %4 = getelementptr inbounds nuw %"class.std::__shared_ptr", ptr %3, i32 0, i32 0
  %5 = load ptr, ptr %4, align 8, !tbaa !185
  ret ptr %5
}

; Function Attrs: mustprogress nounwind uwtable
define linkonce_odr noundef ptr @_ZNKSt19__shared_ptr_accessIN9grpc_core16BasicMemoryQuotaELN9__gnu_cxx12_Lock_policyE2ELb0ELb0EEptEv(ptr noundef nonnull align 1 dereferenceable(1) %0) #8 comdat align 2 {
  %2 = alloca ptr, align 8
  store ptr %0, ptr %2, align 8, !tbaa !190
  %3 = load ptr, ptr %2, align 8
  %4 = call noundef ptr @_ZNKSt19__shared_ptr_accessIN9grpc_core16BasicMemoryQuotaELN9__gnu_cxx12_Lock_policyE2ELb0ELb0EE6_M_getEv(ptr noundef nonnull align 1 dereferenceable(1) %3) #3
  ret ptr %4
}

; Function Attrs: mustprogress nounwind uwtable
define linkonce_odr noundef ptr @_ZNK17grpc_event_engine12experimental15MemoryAllocator21get_internal_impl_ptrEv(ptr noundef nonnull align 8 dereferenceable(16) %0) #8 comdat align 2 {
  %2 = alloca ptr, align 8
  store ptr %0, ptr %2, align 8, !tbaa !181
  %3 = load ptr, ptr %2, align 8
  %4 = getelementptr inbounds nuw %"class.grpc_event_engine::experimental::MemoryAllocator", ptr %3, i32 0, i32 0
  %5 = call noundef ptr @_ZNKSt12__shared_ptrIN17grpc_event_engine12experimental8internal19MemoryAllocatorImplELN9__gnu_cxx12_Lock_policyE2EE3getEv(ptr noundef nonnull align 8 dereferenceable(16) %4) #3
  ret ptr %5
}

; Function Attrs: mustprogress uwtable
define linkonce_odr void @_ZNK9grpc_core23GrpcMemoryAllocatorImpl15GetPressureInfoEv(ptr dead_on_unwind noalias writable sret(%"struct.grpc_core::BasicMemoryQuota::PressureInfo") align 8 %0, ptr noundef nonnull align 8 dereferenceable(136) %1) #4 comdat align 2 {
  %3 = alloca ptr, align 8
  store ptr %1, ptr %3, align 8, !tbaa !179
  %4 = load ptr, ptr %3, align 8
  %5 = getelementptr inbounds nuw %"class.grpc_core::GrpcMemoryAllocatorImpl", ptr %4, i32 0, i32 1
  %6 = call noundef ptr @_ZNKSt19__shared_ptr_accessIN9grpc_core16BasicMemoryQuotaELN9__gnu_cxx12_Lock_policyE2ELb0ELb0EEptEv(ptr noundef nonnull align 1 dereferenceable(1) %5) #3
  call void @_ZN9grpc_core16BasicMemoryQuota15GetPressureInfoEv(ptr dead_on_unwind writable sret(%"struct.grpc_core::BasicMemoryQuota::PressureInfo") align 8 %0, ptr noundef nonnull align 8 dereferenceable(1488) %6)
  ret void
}

; Function Attrs: mustprogress uwtable
define linkonce_odr noundef ptr @_ZNK9grpc_core11MemoryOwner4implEv(ptr noundef nonnull align 8 dereferenceable(16) %0) #4 comdat align 2 {
  %2 = alloca ptr, align 8
  store ptr %0, ptr %2, align 8, !tbaa !48
  %3 = load ptr, ptr %2, align 8
  %4 = call noundef ptr @_ZNK17grpc_event_engine12experimental15MemoryAllocator21get_internal_impl_ptrEv(ptr noundef nonnull align 8 dereferenceable(16) %3)
  ret ptr %4
}

; Function Attrs: mustprogress uwtable
define linkonce_odr noundef zeroext i1 @_ZNK9grpc_core11MemoryOwner8is_validEv(ptr noundef nonnull align 8 dereferenceable(16) %0) #4 comdat align 2 {
  %2 = alloca ptr, align 8
  store ptr %0, ptr %2, align 8, !tbaa !48
  %3 = load ptr, ptr %2, align 8
  %4 = call noundef ptr @_ZNK9grpc_core11MemoryOwner4implEv(ptr noundef nonnull align 8 dereferenceable(16) %3)
  %5 = icmp ne ptr %4, null
  ret i1 %5
}

; Function Attrs: inlinehint mustprogress nounwind uwtable
define internal noundef double @"_ZZNK9grpc_core6chttp220TransportFlowControl50TargetInitialWindowSizeBasedOnMemoryPressureAndBdpEvENK3$_0clEddddd"(ptr noundef nonnull align 1 dereferenceable(1) %0, double noundef %1, double noundef %2, double noundef %3, double noundef %4, double noundef %5) #10 align 2 {
  %7 = alloca ptr, align 8
  %8 = alloca double, align 8
  %9 = alloca double, align 8
  %10 = alloca double, align 8
  %11 = alloca double, align 8
  %12 = alloca double, align 8
  store ptr %0, ptr %7, align 8, !tbaa !93
  store double %1, ptr %8, align 8, !tbaa !112
  store double %2, ptr %9, align 8, !tbaa !112
  store double %3, ptr %10, align 8, !tbaa !112
  store double %4, ptr %11, align 8, !tbaa !112
  store double %5, ptr %12, align 8, !tbaa !112
  %13 = load double, ptr %11, align 8, !tbaa !112
  %14 = load double, ptr %12, align 8, !tbaa !112
  %15 = load double, ptr %11, align 8, !tbaa !112
  %16 = fsub double %14, %15
  %17 = load double, ptr %8, align 8, !tbaa !112
  %18 = load double, ptr %9, align 8, !tbaa !112
  %19 = fsub double %17, %18
  %20 = fmul double %16, %19
  %21 = load double, ptr %10, align 8, !tbaa !112
  %22 = load double, ptr %9, align 8, !tbaa !112
  %23 = fsub double %21, %22
  %24 = fdiv double %20, %23
  %25 = fadd double %13, %24
  ret double %25
}

; Function Attrs: inlinehint mustprogress nounwind uwtable
define linkonce_odr noundef nonnull align 8 dereferenceable(8) ptr @_ZSt3maxIdERKT_S2_S2_(ptr noundef nonnull align 8 dereferenceable(8) %0, ptr noundef nonnull align 8 dereferenceable(8) %1) #10 comdat {
  %3 = alloca ptr, align 8
  %4 = alloca ptr, align 8
  %5 = alloca ptr, align 8
  store ptr %0, ptr %4, align 8, !tbaa !120
  store ptr %1, ptr %5, align 8, !tbaa !120
  %6 = load ptr, ptr %4, align 8, !tbaa !120
  %7 = load double, ptr %6, align 8, !tbaa !112
  %8 = load ptr, ptr %5, align 8, !tbaa !120
  %9 = load double, ptr %8, align 8, !tbaa !112
  %10 = fcmp olt double %7, %9
  br i1 %10, label %11, label %13

11:                                               ; preds = %2
  %12 = load ptr, ptr %5, align 8, !tbaa !120
  store ptr %12, ptr %3, align 8
  br label %15

13:                                               ; preds = %2
  %14 = load ptr, ptr %4, align 8, !tbaa !120
  store ptr %14, ptr %3, align 8
  br label %15

15:                                               ; preds = %13, %11
  %16 = load ptr, ptr %3, align 8
  ret ptr %16
}

; Function Attrs: mustprogress uwtable
define linkonce_odr void @_ZNK9grpc_core11MemoryOwner15GetPressureInfoEv(ptr dead_on_unwind noalias writable sret(%"struct.grpc_core::BasicMemoryQuota::PressureInfo") align 8 %0, ptr noundef nonnull align 8 dereferenceable(16) %1) #4 comdat align 2 {
  %3 = alloca ptr, align 8
  store ptr %1, ptr %3, align 8, !tbaa !48
  %4 = load ptr, ptr %3, align 8
  %5 = call noundef zeroext i1 @_ZNK9grpc_core11MemoryOwner8is_validEv(ptr noundef nonnull align 8 dereferenceable(16) %4)
  br i1 %5, label %10, label %6

6:                                                ; preds = %2
  %7 = getelementptr inbounds nuw %"struct.grpc_core::BasicMemoryQuota::PressureInfo", ptr %0, i32 0, i32 0
  store double 0.000000e+00, ptr %7, align 8, !tbaa !118
  %8 = getelementptr inbounds nuw %"struct.grpc_core::BasicMemoryQuota::PressureInfo", ptr %0, i32 0, i32 1
  store double 0.000000e+00, ptr %8, align 8, !tbaa !113
  %9 = getelementptr inbounds nuw %"struct.grpc_core::BasicMemoryQuota::PressureInfo", ptr %0, i32 0, i32 2
  store i64 0, ptr %9, align 8, !tbaa !119
  br label %12

10:                                               ; preds = %2
  %11 = call noundef ptr @_ZNK9grpc_core11MemoryOwner4implEv(ptr noundef nonnull align 8 dereferenceable(16) %4)
  call void @_ZNK9grpc_core23GrpcMemoryAllocatorImpl15GetPressureInfoEv(ptr dead_on_unwind writable sret(%"struct.grpc_core::BasicMemoryQuota::PressureInfo") align 8 %0, ptr noundef nonnull align 8 dereferenceable(136) %11)
  br label %12

12:                                               ; preds = %10, %6
  ret void
}

; Function Attrs: mustprogress nounwind uwtable
define linkonce_odr noundef i64 @_ZNK9grpc_core12BdpEstimator11EstimateBdpEv(ptr noundef nonnull align 8 dereferenceable(72) %0) #8 comdat align 2 {
  %2 = alloca ptr, align 8
  store ptr %0, ptr %2, align 8, !tbaa !115
  %3 = load ptr, ptr %2, align 8
  %4 = getelementptr inbounds nuw %"class.grpc_core::BdpEstimator", ptr %3, i32 0, i32 1
  %5 = load i64, ptr %4, align 8, !tbaa !117
  ret i64 %5
}

; Function Attrs: mustprogress uwtable
define noundef double @_ZNK9grpc_core6chttp220TransportFlowControl50TargetInitialWindowSizeBasedOnMemoryPressureAndBdpEv(ptr noundef nonnull align 8 dereferenceable(144) %0) #4 align 2 {
  %2 = alloca double, align 8
  %3 = alloca ptr, align 8
  %4 = alloca double, align 8
  %5 = alloca double, align 8
  %6 = alloca %"struct.grpc_core::BasicMemoryQuota::PressureInfo", align 8
  %7 = alloca %class.anon.3, align 1
  %8 = alloca double, align 8
  %9 = alloca double, align 8
  %10 = alloca double, align 8
  %11 = alloca double, align 8
  %12 = alloca double, align 8
  %13 = alloca i32, align 4
  store ptr %0, ptr %3, align 8, !tbaa !44
  %14 = load ptr, ptr %3, align 8
  call void @llvm.lifetime.start.p0(i64 8, ptr %4) #3
  %15 = getelementptr inbounds nuw %"class.grpc_core::chttp2::TransportFlowControl", ptr %14, i32 0, i32 3
  %16 = call noundef i64 @_ZNK9grpc_core12BdpEstimator11EstimateBdpEv(ptr noundef nonnull align 8 dereferenceable(72) %15)
  %17 = sitofp i64 %16 to double
  %18 = fmul double %17, 2.000000e+00
  store double %18, ptr %4, align 8, !tbaa !112
  call void @llvm.lifetime.start.p0(i64 8, ptr %5) #3
  call void @llvm.lifetime.start.p0(i64 24, ptr %6) #3
  %19 = getelementptr inbounds nuw %"class.grpc_core::chttp2::TransportFlowControl", ptr %14, i32 0, i32 0
  %20 = load ptr, ptr %19, align 8, !tbaa !50
  call void @_ZNK9grpc_core11MemoryOwner15GetPressureInfoEv(ptr dead_on_unwind writable sret(%"struct.grpc_core::BasicMemoryQuota::PressureInfo") align 8 %6, ptr noundef nonnull align 8 dereferenceable(16) %20)
  %21 = getelementptr inbounds nuw %"struct.grpc_core::BasicMemoryQuota::PressureInfo", ptr %6, i32 0, i32 1
  %22 = load double, ptr %21, align 8, !tbaa !113
  call void @llvm.lifetime.end.p0(i64 24, ptr %6) #3
  store double %22, ptr %5, align 8, !tbaa !112
  call void @llvm.lifetime.start.p0(i64 1, ptr %7) #3
  call void @llvm.lifetime.start.p0(i64 8, ptr %8) #3
  store double 2.000000e-01, ptr %8, align 8, !tbaa !112
  call void @llvm.lifetime.start.p0(i64 8, ptr %9) #3
  store double 5.000000e-01, ptr %9, align 8, !tbaa !112
  call void @llvm.lifetime.start.p0(i64 8, ptr %10) #3
  store double 0x4130000000000000, ptr %10, align 8, !tbaa !112
  call void @llvm.lifetime.start.p0(i64 8, ptr %11) #3
  call void @llvm.lifetime.start.p0(i64 8, ptr %12) #3
  store double 0x4150000000000000, ptr %12, align 8, !tbaa !112
  %23 = call noundef nonnull align 8 dereferenceable(8) ptr @_ZSt3maxIdERKT_S2_S2_(ptr noundef nonnull align 8 dereferenceable(8) %12, ptr noundef nonnull align 8 dereferenceable(8) %4)
  %24 = load double, ptr %23, align 8, !tbaa !112
  call void @llvm.lifetime.end.p0(i64 8, ptr %12) #3
  store double %24, ptr %11, align 8, !tbaa !112
  %25 = load double, ptr %5, align 8, !tbaa !112
  %26 = fcmp olt double %25, 2.000000e-01
  br i1 %26, label %27, label %29

27:                                               ; preds = %1
  %28 = load double, ptr %11, align 8, !tbaa !112
  store double %28, ptr %2, align 8
  store i32 1, ptr %13, align 4
  br label %45

29:                                               ; preds = %1
  %30 = load double, ptr %5, align 8, !tbaa !112
  %31 = fcmp olt double %30, 5.000000e-01
  br i1 %31, label %32, label %37

32:                                               ; preds = %29
  %33 = load double, ptr %5, align 8, !tbaa !112
  %34 = load double, ptr %11, align 8, !tbaa !112
  %35 = load double, ptr %4, align 8, !tbaa !112
  %36 = call noundef double @"_ZZNK9grpc_core6chttp220TransportFlowControl50TargetInitialWindowSizeBasedOnMemoryPressureAndBdpEvENK3$_0clEddddd"(ptr noundef nonnull align 1 dereferenceable(1) %7, double noundef %33, double noundef 2.000000e-01, double noundef 5.000000e-01, double noundef %34, double noundef %35)
  store double %36, ptr %2, align 8
  store i32 1, ptr %13, align 4
  br label %45

37:                                               ; preds = %29
  %38 = load double, ptr %5, align 8, !tbaa !112
  %39 = fcmp olt double %38, 1.000000e+00
  br i1 %39, label %40, label %44

40:                                               ; preds = %37
  %41 = load double, ptr %5, align 8, !tbaa !112
  %42 = load double, ptr %4, align 8, !tbaa !112
  %43 = call noundef double @"_ZZNK9grpc_core6chttp220TransportFlowControl50TargetInitialWindowSizeBasedOnMemoryPressureAndBdpEvENK3$_0clEddddd"(ptr noundef nonnull align 1 dereferenceable(1) %7, double noundef %41, double noundef 5.000000e-01, double noundef 1.000000e+00, double noundef %42, double noundef 0.000000e+00)
  store double %43, ptr %2, align 8
  store i32 1, ptr %13, align 4
  br label %45

44:                                               ; preds = %37
  store double 0.000000e+00, ptr %2, align 8
  store i32 1, ptr %13, align 4
  br label %45

45:                                               ; preds = %44, %40, %32, %27
  call void @llvm.lifetime.end.p0(i64 8, ptr %11) #3
  call void @llvm.lifetime.end.p0(i64 8, ptr %10) #3
  call void @llvm.lifetime.end.p0(i64 8, ptr %9) #3
  call void @llvm.lifetime.end.p0(i64 8, ptr %8) #3
  call void @llvm.lifetime.end.p0(i64 1, ptr %7) #3
  call void @llvm.lifetime.end.p0(i64 8, ptr %5) #3
  call void @llvm.lifetime.end.p0(i64 8, ptr %4) #3
  %46 = load double, ptr %2, align 8
  ret double %46
}