; Function Attrs: mustprogress uwtable
define noundef double @_ZNK9grpc_core6chttp220TransportFlowControl50TargetInitialWindowSizeBasedOnMemoryPressureAndBdpEv(ptr noundef nonnull readonly align 8 captures(none) dereferenceable(144) %0) local_unnamed_addr #3 align 2 {
  %2 = alloca %"struct.grpc_core::BasicMemoryQuota::PressureInfo", align 8
  %3 = getelementptr inbounds nuw i8, ptr %0, i64 32
  %4 = load i64, ptr %3, align 8, !tbaa !92
  %5 = sitofp i64 %4 to double
  %6 = fmul double %5, 2.000000e+00
  call void @llvm.lifetime.start.p0(i64 24, ptr nonnull %2) #28
  %7 = load ptr, ptr %0, align 8, !tbaa !48
  %8 = load ptr, ptr %7, align 8, !tbaa !93, !noalias !98
  %.not.i = icmp eq ptr %8, null
  br i1 %.not.i, label %_ZNK9grpc_core11MemoryOwner15GetPressureInfoEv.exit.thread, label %_ZNK9grpc_core11MemoryOwner15GetPressureInfoEv.exit

_ZNK9grpc_core11MemoryOwner15GetPressureInfoEv.exit.thread: ; preds = %1
  call void @llvm.lifetime.end.p0(i64 24, ptr nonnull %2) #28
  %9 = fcmp ogt double %6, 0x4150000000000000
  %.sroa.speculated12 = select i1 %9, double %6, double 0x4150000000000000
  br label %30

_ZNK9grpc_core11MemoryOwner15GetPressureInfoEv.exit: ; preds = %1
  %10 = getelementptr inbounds nuw i8, ptr %8, i64 24
  %11 = load ptr, ptr %10, align 8, !tbaa !101, !noalias !104
  call void @_ZN9grpc_core16BasicMemoryQuota15GetPressureInfoEv(ptr dead_on_unwind nonnull writable sret(%"struct.grpc_core::BasicMemoryQuota::PressureInfo") align 8 %2, ptr noundef nonnull align 8 dereferenceable(1488) %11)
  %.phi.trans.insert = getelementptr inbounds nuw i8, ptr %2, i64 8
  %.pre = load double, ptr %.phi.trans.insert, align 8, !tbaa !107
  call void @llvm.lifetime.end.p0(i64 24, ptr nonnull %2) #28
  %12 = fcmp ogt double %6, 0x4150000000000000
  %.sroa.speculated = select i1 %12, double %6, double 0x4150000000000000
  %13 = fcmp olt double %.pre, 2.000000e-01
  br i1 %13, label %30, label %14

14:                                               ; preds = %_ZNK9grpc_core11MemoryOwner15GetPressureInfoEv.exit
  %15 = fcmp olt double %.pre, 5.000000e-01
  br i1 %15, label %16, label %22

16:                                               ; preds = %14
  %17 = fsub double %6, %.sroa.speculated
  %18 = fadd double %.pre, -2.000000e-01
  %19 = fmul double %17, %18
  %20 = fdiv double %19, 3.000000e-01
  %21 = fadd double %.sroa.speculated, %20
  br label %30

22:                                               ; preds = %14
  %23 = fcmp olt double %.pre, 1.000000e+00
  br i1 %23, label %24, label %30

24:                                               ; preds = %22
  %25 = fsub double 0.000000e+00, %6
  %26 = fadd double %.pre, -5.000000e-01
  %27 = fmul double %25, %26
  %28 = fmul double %27, 2.000000e+00
  %29 = fadd double %6, %28
  br label %30

30:                                               ; preds = %_ZNK9grpc_core11MemoryOwner15GetPressureInfoEv.exit.thread, %22, %_ZNK9grpc_core11MemoryOwner15GetPressureInfoEv.exit, %24, %16
  %.0 = phi double [ %21, %16 ], [ %29, %24 ], [ %.sroa.speculated, %_ZNK9grpc_core11MemoryOwner15GetPressureInfoEv.exit ], [ 0.000000e+00, %22 ], [ %.sroa.speculated12, %_ZNK9grpc_core11MemoryOwner15GetPressureInfoEv.exit.thread ]
  ret double %.0
}